; ModuleID = '57/1438.c'
source_filename = "57/1438.c"
target datalayout = "e-m:e-p270:32:32-p271:32:32-p272:64:64-i64:64-f80:128-n8:16:32:64-S128"
target triple = "x86_64-pc-linux-gnu"

@.str = private unnamed_addr constant [3 x i8] c"%d\00", align 1
@.str.1 = private unnamed_addr constant [3 x i8] c"%s\00", align 1
@.str.2 = private unnamed_addr constant [4 x i8] c"%s\0A\00", align 1

; Function Attrs: noinline nounwind uwtable
define dso_local i32 @main() #0 {
  %1 = alloca i32, align 4
  %2 = alloca i32, align 4
  %3 = alloca i32, align 4
  %4 = alloca i32, align 4
  %5 = alloca i32, align 4
  %6 = alloca [20 x i8], align 16
  store i32 0, i32* %1, align 4
  %7 = call i32 (i8*, ...) @__isoc99_scanf(i8* getelementptr inbounds ([3 x i8], [3 x i8]* @.str, i64 0, i64 0), i32* %2)
  store i32 0, i32* %3, align 4
  br label %8

8:                                                ; preds = %118, %0
  %9 = load i32, i32* %3, align 4
  %10 = load i32, i32* %2, align 4
  %11 = icmp slt i32 %9, %10
  br i1 %11, label %12, label %121

12:                                               ; preds = %8
  %13 = getelementptr inbounds [20 x i8], [20 x i8]* %6, i64 0, i64 0
  %14 = call i32 (i8*, ...) @__isoc99_scanf(i8* getelementptr inbounds ([3 x i8], [3 x i8]* @.str.1, i64 0, i64 0), i8* %13)
  %15 = getelementptr inbounds [20 x i8], [20 x i8]* %6, i64 0, i64 0
  %16 = call i64 @strlen(i8* %15) #3
  %17 = trunc i64 %16 to i32
  store i32 %17, i32* %4, align 4
  store i32 0, i32* %5, align 4
  br label %18

18:                                               ; preds = %112, %12
  %19 = load i32, i32* %5, align 4
  %20 = load i32, i32* %4, align 4
  %21 = icmp sle i32 %19, %20
  br i1 %21, label %22, label %115

22:                                               ; preds = %18
  %23 = load i32, i32* %4, align 4
  %24 = sub nsw i32 %23, 2
  %25 = sext i32 %24 to i64
  %26 = getelementptr inbounds [20 x i8], [20 x i8]* %6, i64 0, i64 %25
  %27 = load i8, i8* %26, align 1
  %28 = sext i8 %27 to i32
  %29 = icmp eq i32 %28, 101
  br i1 %29, label %30, label %47

30:                                               ; preds = %22
  %31 = load i32, i32* %4, align 4
  %32 = sub nsw i32 %31, 1
  %33 = sext i32 %32 to i64
  %34 = getelementptr inbounds [20 x i8], [20 x i8]* %6, i64 0, i64 %33
  %35 = load i8, i8* %34, align 1
  %36 = sext i8 %35 to i32
  %37 = icmp eq i32 %36, 114
  br i1 %37, label %38, label %47

38:                                               ; preds = %30
  %39 = load i32, i32* %4, align 4
  %40 = sub nsw i32 %39, 2
  %41 = sext i32 %40 to i64
  %42 = getelementptr inbounds [20 x i8], [20 x i8]* %6, i64 0, i64 %41
  store i8 0, i8* %42, align 1
  %43 = load i32, i32* %4, align 4
  %44 = sub nsw i32 %43, 1
  %45 = sext i32 %44 to i64
  %46 = getelementptr inbounds [20 x i8], [20 x i8]* %6, i64 0, i64 %45
  store i8 0, i8* %46, align 1
  br label %111

47:                                               ; preds = %30, %22
  %48 = load i32, i32* %4, align 4
  %49 = sub nsw i32 %48, 2
  %50 = sext i32 %49 to i64
  %51 = getelementptr inbounds [20 x i8], [20 x i8]* %6, i64 0, i64 %50
  %52 = load i8, i8* %51, align 1
  %53 = sext i8 %52 to i32
  %54 = icmp eq i32 %53, 108
  br i1 %54, label %55, label %72

55:                                               ; preds = %47
  %56 = load i32, i32* %4, align 4
  %57 = sub nsw i32 %56, 1
  %58 = sext i32 %57 to i64
  %59 = getelementptr inbounds [20 x i8], [20 x i8]* %6, i64 0, i64 %58
  %60 = load i8, i8* %59, align 1
  %61 = sext i8 %60 to i32
  %62 = icmp eq i32 %61, 121
  br i1 %62, label %63, label %72

63:                                               ; preds = %55
  %64 = load i32, i32* %4, align 4
  %65 = sub nsw i32 %64, 2
  %66 = sext i32 %65 to i64
  %67 = getelementptr inbounds [20 x i8], [20 x i8]* %6, i64 0, i64 %66
  store i8 0, i8* %67, align 1
  %68 = load i32, i32* %4, align 4
  %69 = sub nsw i32 %68, 1
  %70 = sext i32 %69 to i64
  %71 = getelementptr inbounds [20 x i8], [20 x i8]* %6, i64 0, i64 %70
  store i8 0, i8* %71, align 1
  br label %110

72:                                               ; preds = %55, %47
  %73 = load i32, i32* %4, align 4
  %74 = sub nsw i32 %73, 3
  %75 = sext i32 %74 to i64
  %76 = getelementptr inbounds [20 x i8], [20 x i8]* %6, i64 0, i64 %75
  %77 = load i8, i8* %76, align 1
  %78 = sext i8 %77 to i32
  %79 = icmp eq i32 %78, 105
  br i1 %79, label %80, label %109

80:                                               ; preds = %72
  %81 = load i32, i32* %4, align 4
  %82 = sub nsw i32 %81, 2
  %83 = sext i32 %82 to i64
  %84 = getelementptr inbounds [20 x i8], [20 x i8]* %6, i64 0, i64 %83
  %85 = load i8, i8* %84, align 1
  %86 = sext i8 %85 to i32
  %87 = icmp eq i32 %86, 110
  br i1 %87, label %88, label %109

88:                                               ; preds = %80
  %89 = load i32, i32* %4, align 4
  %90 = sub nsw i32 %89, 1
  %91 = sext i32 %90 to i64
  %92 = getelementptr inbounds [20 x i8], [20 x i8]* %6, i64 0, i64 %91
  %93 = load i8, i8* %92, align 1
  %94 = sext i8 %93 to i32
  %95 = icmp eq i32 %94, 103
  br i1 %95, label %96, label %109

96:                                               ; preds = %88
  %97 = load i32, i32* %4, align 4
  %98 = sub nsw i32 %97, 3
  %99 = sext i32 %98 to i64
  %100 = getelementptr inbounds [20 x i8], [20 x i8]* %6, i64 0, i64 %99
  store i8 0, i8* %100, align 1
  %101 = load i32, i32* %4, align 4
  %102 = sub nsw i32 %101, 2
  %103 = sext i32 %102 to i64
  %104 = getelementptr inbounds [20 x i8], [20 x i8]* %6, i64 0, i64 %103
  store i8 0, i8* %104, align 1
  %105 = load i32, i32* %4, align 4
  %106 = sub nsw i32 %105, 1
  %107 = sext i32 %106 to i64
  %108 = getelementptr inbounds [20 x i8], [20 x i8]* %6, i64 0, i64 %107
  store i8 0, i8* %108, align 1
  br label %109

109:                                              ; preds = %96, %88, %80, %72
  br label %110

110:                                              ; preds = %109, %63
  br label %111

111:                                              ; preds = %110, %38
  br label %112

112:                                              ; preds = %111
  %113 = load i32, i32* %5, align 4
  %114 = add nsw i32 %113, 1
  store i32 %114, i32* %5, align 4
  br label %18

115:                                              ; preds = %18
  %116 = getelementptr inbounds [20 x i8], [20 x i8]* %6, i64 0, i64 0
  %117 = call i32 (i8*, ...) @printf(i8* getelementptr inbounds ([4 x i8], [4 x i8]* @.str.2, i64 0, i64 0), i8* %116)
  br label %118

118:                                              ; preds = %115
  %119 = load i32, i32* %3, align 4
  %120 = add nsw i32 %119, 1
  store i32 %120, i32* %3, align 4
  br label %8

121:                                              ; preds = %8
  ret i32 0
}

declare dso_local i32 @__isoc99_scanf(i8*, ...) #1

; Function Attrs: nounwind readonly
declare dso_local i64 @strlen(i8*) #2

declare dso_local i32 @printf(i8*, ...) #1


!llvm.module.flags = !{!0}
!llvm.ident = !{!1}

!0 = !{i32 1, !"wchar_size", i32 4}
!1 = !{!"clang version 10.0.0-4ubuntu1 "}
